Certificate:
    Data:
        Version: 3 (0x2)
        Serial Number: 1 (0x1)
        Signature Algorithm: md5WithRSAEncryption
        Issuer: CN=Elfwerks-Example CA, ST=Colorado, C=US/emailAddress=keymaster@elfwerks.org, O=Root Certification Authority-Example
        Validity
            Not Before: Feb  2 05:10:33 2006 GMT
            Not After : Feb  2 05:10:33 2007 GMT
        Subject: CN=thor.elfwerks, ST=CO, C=US/emailAddress=none, O=Elfwerks
        Subject Public Key Info:
            Public Key Algorithm: rsaEncryption
            RSA Public Key: (1024 bit)
                Modulus (1024 bit):
                    00:eb:63:a2:d7:03:bd:fc:60:09:b9:be:3a:7f:e5:
                    06:9c:ca:17:e4:d9:6f:f9:90:60:1f:ec:4b:1a:93:
                    d2:c8:bf:48:da:ac:86:d9:71:25:a2:88:40:0b:3d:
                    b9:94:33:20:81:72:ff:68:25:96:f6:06:7d:56:25:
                    1a:f4:aa:a1:cd:8d:ce:41:85:b3:80:90:0a:38:44:
                    f3:72:1e:58:ca:29:dc:e2:21:9b:ef:f1:41:07:b3:
                    ec:05:ba:e2:3b:5f:a9:91:b7:59:af:c3:2e:b3:46:
                    a6:0c:b5:e4:e1:a6:53:4a:16:ba:04:0f:80:73:0e:
                    3e:55:be:8c:b0:59:df:b8:d1
                Exponent: 65537 (0x10001)
        X509v3 extensions:
            X509v3 Basic Constraints: 
                CA:FALSE
    Signature Algorithm: md5WithRSAEncryption
        4d:29:0f:b3:03:f2:fb:b8:28:e8:47:60:53:f1:b8:fe:a6:0c:
        21:fe:55:89:b4:f5:c7:63:84:91:e5:e2:82:8e:9a:a0:33:3a:
        31:be:9c:03:02:1d:ef:59:b6:17:6c:a9:6b:8c:1c:93:ca:03:
        fa:d7:55:00:66:7b:07:72:4d:f8:e6:1f:2f:46:e7:5e:db:07:
        f8:3b:58:cd:56:ff:b5:56:5d:83:f5:fb:4c:8f:d6:d6:7b:d4:
        e0:01:20:1e:9d:03:7d:a6:91:49:6c:54:b1:41:ee:27:79:ad:
        6e:a3:66:92:f2:94:e5:ce:19:0f:88:bf:f6:7d:fb:8d:92:07:
        10:57:b9:1d:a5:b5:e9:f0:ea:f6:70:0e:3a:aa:2a:80:78:b3:
        dc:e8:89:f2:a9:ef:cb:fb:f3:27:78:21:e0:23:98:cd:a7:08:
        c2:b3:2f:50:be:fa:8d:64:a6:51:aa:f4:c5:e5:c0:f4:ec:4c:
        8b:39:88:f6:25:fe:d7:02:28:35:20:e5:66:f3:66:f8:6a:f7:
        44:44:b4:ea:4c:c7:49:e2:e4:b4:c5:c9:4b:71:2c:34:aa:da:
        ca:9c:a3:9a:8e:e3:68:aa:73:b8:12:d6:ba:3e:24:74:81:b2:
        80:f6:a7:92:c8:f6:60:9c:32:df:06:17:9b:f2:aa:70:41:ec:
        ad:f1:11:b8
-----BEGIN CERTIFICATE-----
MIIC8zCCAdugAwIBAgIBATANBgkqhkiG9w0BAQQFADCBlDEcMBoGA1UEAxMTRWxm
d2Vya3MtRXhhbXBsZSBDQTERMA8GA1UECBMIQ29sb3JhZG8xCzAJBgNVBAYTAlVT
MSUwIwYJKoZIhvcNAQkBFhZrZXltYXN0ZXJAZWxmd2Vya3Mub3JnMS0wKwYDVQQK
EyRSb290IENlcnRpZmljYXRpb24gQXV0aG9yaXR5LUV4YW1wbGUwHhcNMDYwMjAy
MDUxMDMzWhcNMDcwMjAyMDUxMDMzWjBaMRYwFAYDVQQDEw10aG9yLmVsZndlcmtz
MQswCQYDVQQIEwJDTzELMAkGA1UEBhMCVVMxEzARBgkqhkiG9w0BCQEWBG5vbmUx
ETAPBgNVBAoTCEVsZndlcmtzMIGfMA0GCSqGSIb3DQEBAQUAA4GNADCBiQKBgQDr
Y6LXA738YAm5vjp/5Qacyhfk2W/5kGAf7Esak9LIv0jarIbZcSWiiEALPbmUMyCB
cv9oJZb2Bn1WJRr0qqHNjc5BhbOAkAo4RPNyHljKKdziIZvv8UEHs+wFuuI7X6mR
t1mvwy6zRqYMteThplNKFroED4BzDj5VvoywWd+40QIDAQABow0wCzAJBgNVHRME
AjAAMA0GCSqGSIb3DQEBBAUAA4IBAQBNKQ+zA/L7uCjoR2BT8bj+pgwh/lWJtPXH
Y4SR5eKCjpqgMzoxvpwDAh3vWbYXbKlrjByTygP611UAZnsHck345h8vRude2wf4
O1jNVv+1Vl2D9ftMj9bWe9TgASAenQN9ppFJbFSxQe4nea1uo2aS8pTlzhkPiL/2
ffuNkgcQV7kdpbXp8Or2cA46qiqAeLPc6Inyqe/L+/MneCHgI5jNpwjCsy9QvvqN
ZKZRqvTF5cD07EyLOYj2Jf7XAig1IOVm82b4avdERLTqTMdJ4uS0xclLcSw0qtrK
nKOajuNoqnO4Eta6PiR0gbKA9qeSyPZgnDLfBheb8qpwQeyt8RG4
-----END CERTIFICATE-----
