Certificate:
    Data:
        Version: 3 (0x2)
        Serial Number: 2 (0x2)
        Signature Algorithm: md5WithRSAEncryption
        Issuer: CN=Elfwerks-Example CA, ST=Colorado, C=US/emailAddress=keymaster@elfwerks.org, O=Root Certification Authority-Example
        Validity
            Not Before: Mar 21 02:30:41 2006 GMT
            Not After : Mar 21 02:30:41 2007 GMT
        Subject: CN=Elfwerks, ST=Colorado, C=US, O=Elfwerks, OU=Elfwerks
        Subject Public Key Info:
            Public Key Algorithm: dsaEncryption
            DSA Public Key:
                pub: 
                    3e:66:84:a7:95:0e:36:ed:f9:48:54:e6:1a:9f:f4:
                    f5:a6:7b:20:50:b4:92:af:1e:ee:03:6e:65:90:33:
                    64:a3:bb:e1:2d:7b:09:f8:fe:0b:2d:17:22:8e:c2:
                    c2:2c:a4:b8:0c:7d:39:45:91:c2:35:69:72:34:53:
                    53:70:90:3d:e7:71:68:27:b7:97:f2:45:03:c6:d9:
                    ec:ad:16:6e:fe:a7:04:1d:84:7a:c9:04:55:c8:90:
                    cb:ee:11:cf:3e:00:57:2c:db:fd:2a:0d:43:f5:f2:
                    87:dd:41:3d:d6:d2:59:19:d3:1a:26:2e:3c:62:b3:
                    39:e9:cd:3b:73:d3:8b:fa
                P:   
                    00:fd:7f:53:81:1d:75:12:29:52:df:4a:9c:2e:ec:
                    e4:e7:f6:11:b7:52:3c:ef:44:00:c3:1e:3f:80:b6:
                    51:26:69:45:5d:40:22:51:fb:59:3d:8d:58:fa:bf:
                    c5:f5:ba:30:f6:cb:9b:55:6c:d7:81:3b:80:1d:34:
                    6f:f2:66:60:b7:6b:99:50:a5:a4:9f:9f:e8:04:7b:
                    10:22:c2:4f:bb:a9:d7:fe:b7:c6:1b:f8:3b:57:e7:
                    c6:a8:a6:15:0f:04:fb:83:f6:d3:c5:1e:c3:02:35:
                    54:13:5a:16:91:32:f6:75:f3:ae:2b:61:d7:2a:ef:
                    f2:22:03:19:9d:d1:48:01:c7
                Q:   
                    00:97:60:50:8f:15:23:0b:cc:b2:92:b9:82:a2:eb:
                    84:0b:f0:58:1c:f5
                G:   
                    00:f7:e1:a0:85:d6:9b:3d:de:cb:bc:ab:5c:36:b8:
                    57:b9:79:94:af:bb:fa:3a:ea:82:f9:57:4c:0b:3d:
                    07:82:67:51:59:57:8e:ba:d4:59:4f:e6:71:07:10:
                    81:80:b4:49:16:71:23:e8:4c:28:16:13:b7:cf:09:
                    32:8c:c8:a6:e1:3c:16:7a:8b:54:7c:8d:28:e0:a3:
                    ae:1e:2b:b3:a6:75:91:6e:a3:7f:0b:fa:21:35:62:
                    f1:fb:62:7a:01:24:3b:cc:a4:f1:be:a8:51:90:89:
                    a8:83:df:e1:5a:e5:9f:06:92:8b:66:5e:80:7b:55:
                    25:64:01:4c:3b:fe:cf:49:2a
        X509v3 extensions:
            X509v3 Basic Constraints: 
                CA:FALSE
    Signature Algorithm: md5WithRSAEncryption
        11:47:1e:d8:06:64:47:f0:15:ee:6d:4a:8e:99:11:0b:ce:ed:
        ae:5d:22:05:74:12:18:38:8e:49:ef:39:98:9e:29:71:82:e1:
        2f:6f:32:7e:00:99:c2:3b:b5:88:28:62:6c:cf:dd:77:26:1d:
        26:2c:bb:32:3a:be:49:78:71:c5:fa:76:5d:ef:14:36:5b:2a:
        72:46:58:c1:a7:6b:26:83:d6:fd:2f:3b:c7:65:bc:cc:1a:1f:
        e4:6a:79:a0:e2:20:fd:18:4d:98:08:81:09:99:89:51:4e:fa:
        72:07:69:66:5e:b3:d2:b9:ca:7b:9b:da:28:50:ae:fd:bb:0d:
        08:21:89:ee:ca:f1:aa:ec:c4:cf:9e:f5:f8:3d:0f:9a:fd:b3:
        a4:cb:e1:30:83:7d:6a:4a:da:3d:5c:5f:fb:cd:2d:29:cd:65:
        d7:99:3f:86:fa:30:e2:45:9c:4c:62:bc:b8:09:e1:5f:88:a1:
        cd:17:b1:44:fe:46:10:99:77:de:c7:b6:a6:5b:df:a8:00:ac:
        6d:cf:72:5e:23:00:06:17:98:26:97:8d:13:36:38:71:30:b5:
        96:e3:b8:5c:7a:4e:a4:22:8c:be:01:af:f3:25:55:cd:13:38:
        5a:36:13:50:35:21:9a:a1:9f:39:bb:7c:3f:48:d8:b6:7d:df:
        90:8e:ae:0b
-----BEGIN CERTIFICATE-----
MIIECzCCAvOgAwIBAgIBAjANBgkqhkiG9w0BAQQFADCBlDEcMBoGA1UEAxMTRWxm
d2Vya3MtRXhhbXBsZSBDQTERMA8GA1UECBMIQ29sb3JhZG8xCzAJBgNVBAYTAlVT
MSUwIwYJKoZIhvcNAQkBFhZrZXltYXN0ZXJAZWxmd2Vya3Mub3JnMS0wKwYDVQQK
EyRSb290IENlcnRpZmljYXRpb24gQXV0aG9yaXR5LUV4YW1wbGUwHhcNMDYwMzIx
MDIzMDQxWhcNMDcwMzIxMDIzMDQxWjBZMREwDwYDVQQDEwhFbGZ3ZXJrczERMA8G
A1UECBMIQ29sb3JhZG8xCzAJBgNVBAYTAlVTMREwDwYDVQQKEwhFbGZ3ZXJrczER
MA8GA1UECxMIRWxmd2Vya3MwggG3MIIBLAYHKoZIzjgEATCCAR8CgYEA/X9TgR11
EilS30qcLuzk5/YRt1I870QAwx4/gLZRJmlFXUAiUftZPY1Y+r/F9bow9subVWzX
gTuAHTRv8mZgt2uZUKWkn5/oBHsQIsJPu6nX/rfGG/g7V+fGqKYVDwT7g/bTxR7D
AjVUE1oWkTL2dfOuK2HXKu/yIgMZndFIAccCFQCXYFCPFSMLzLKSuYKi64QL8Fgc
9QKBgQD34aCF1ps93su8q1w2uFe5eZSvu/o66oL5V0wLPQeCZ1FZV4661FlP5nEH
EIGAtEkWcSPoTCgWE7fPCTKMyKbhPBZ6i1R8jSjgo64eK7OmdZFuo38L+iE1YvH7
YnoBJDvMpPG+qFGQiaiD3+Fa5Z8GkotmXoB7VSVkAUw7/s9JKgOBhAACgYA+ZoSn
lQ427flIVOYan/T1pnsgULSSrx7uA25lkDNko7vhLXsJ+P4LLRcijsLCLKS4DH05
RZHCNWlyNFNTcJA953FoJ7eX8kUDxtnsrRZu/qcEHYR6yQRVyJDL7hHPPgBXLNv9
Kg1D9fKH3UE91tJZGdMaJi48YrM56c07c9OL+qMNMAswCQYDVR0TBAIwADANBgkq
hkiG9w0BAQQFAAOCAQEAEUce2AZkR/AV7m1KjpkRC87trl0iBXQSGDiOSe85mJ4p
cYLhL28yfgCZwju1iChibM/ddyYdJiy7Mjq+SXhxxfp2Xe8UNlsqckZYwadrJoPW
/S87x2W8zBof5Gp5oOIg/RhNmAiBCZmJUU76cgdpZl6z0rnKe5vaKFCu/bsNCCGJ
7srxquzEz571+D0Pmv2zpMvhMIN9akraPVxf+80tKc1l15k/hvow4kWcTGK8uAnh
X4ihzRexRP5GEJl33se2plvfqACsbc9yXiMABheYJpeNEzY4cTC1luO4XHpOpCKM
vgGv8yVVzRM4WjYTUDUhmqGfObt8P0jYtn3fkI6uCw==
-----END CERTIFICATE-----
